target datalayout = "e-m:e-p270:32:32-p271:32:32-p272:64:64-i64:64-i128:128-f80:128-n8:16:32:64-S128"
target triple = "x86_64-unknown-linux-gnu"

%"class.boost::detail::shared_count" = type { ptr }
%"class.boost::shared_ptr.38" = type { ptr, %"class.boost::detail::shared_count" }
%"struct.QuantLib::(anonymous namespace)::sigmaq_adapter" = type { %"class.boost::shared_ptr.38", double }

@.str.14 = private unnamed_addr constant [8 x i8] c"px != 0\00", align 1
@.str.15 = private unnamed_addr constant [102 x i8] c"generated/home/dtcxzyw/WorkSpace/SDK/vcpkg/installed/x64-linux/include/boost/smart_ptr/shared_ptr.hpp\00", align 1
@__PRETTY_FUNCTION__._ZNK5boost10shared_ptrIN8QuantLib21BlackVolTermStructureEEptEv = private unnamed_addr constant [159 x i8] c"typename boost::detail::sp_member_access<T>::type boost::shared_ptr<QuantLib::BlackVolTermStructure>::operator->() const [T = QuantLib::BlackVolTermStructure]\00", align 1

; Function Attrs: mustprogress uwtable
define linkonce_odr noundef ptr @_ZNK5boost10shared_ptrIN8QuantLib21BlackVolTermStructureEEptEv(ptr noundef nonnull align 8 dereferenceable(16) %this) #2 comdat align 2 {
entry:
  %this.addr = alloca ptr, align 8
  store ptr %this, ptr %this.addr, align 8, !tbaa !3
  %this1 = load ptr, ptr %this.addr, align 8
  %px = getelementptr inbounds nuw %"class.boost::shared_ptr.38", ptr %this1, i32 0, i32 0
  %0 = load ptr, ptr %px, align 8, !tbaa !164
  %cmp = icmp ne ptr %0, null
  %lnot = xor i1 %cmp, true
  %lnot2 = xor i1 %lnot, true
  %conv = zext i1 %lnot2 to i64
  %expval = call i64 @llvm.expect.i64(i64 %conv, i64 1)
  %tobool = icmp ne i64 %expval, 0
  br i1 %tobool, label %cond.true, label %cond.false

cond.true:                                        ; preds = %entry
  br label %cond.end

cond.false:                                       ; preds = %entry
  call void @_ZN5boost16assertion_failedEPKcS1_S1_l(ptr noundef @.str.14, ptr noundef @__PRETTY_FUNCTION__._ZNK5boost10shared_ptrIN8QuantLib21BlackVolTermStructureEEptEv, ptr noundef @.str.15, i64 noundef 784)
  br label %cond.end

cond.end:                                         ; preds = %cond.false, %cond.true
  %px3 = getelementptr inbounds nuw %"class.boost::shared_ptr.38", ptr %this1, i32 0, i32 0
  %1 = load ptr, ptr %px3, align 8, !tbaa !164
  ret ptr %1
}

; Function Attrs: mustprogress uwtable
define internal noundef double @_ZNK8QuantLib12_GLOBAL__N_114sigmaq_adapterclEd(ptr noundef nonnull align 8 dereferenceable(24) %this, double noundef %t) #2 align 2 {
entry:
  %this.addr = alloca ptr, align 8
  %t.addr = alloca double, align 8
  %sigma = alloca double, align 8
  store ptr %this, ptr %this.addr, align 8, !tbaa !3
  store double %t, ptr %t.addr, align 8, !tbaa !62
  %this1 = load ptr, ptr %this.addr, align 8
  call void @llvm.lifetime.start.p0(i64 8, ptr %sigma) #11
  %v = getelementptr inbounds nuw %"struct.QuantLib::(anonymous namespace)::sigmaq_adapter", ptr %this1, i32 0, i32 0
  %call = call noundef ptr @_ZNK5boost10shared_ptrIN8QuantLib21BlackVolTermStructureEEptEv(ptr noundef nonnull align 8 dereferenceable(16) %v)
  %0 = load double, ptr %t.addr, align 8, !tbaa !62
  %1 = load double, ptr %t.addr, align 8, !tbaa !62
  %s = getelementptr inbounds nuw %"struct.QuantLib::(anonymous namespace)::sigmaq_adapter", ptr %this1, i32 0, i32 1
  %2 = load double, ptr %s, align 8, !tbaa !87
  %call2 = call noundef double @_ZNK8QuantLib21BlackVolTermStructure15blackForwardVolEdddb(ptr noundef nonnull align 8 dereferenceable(68) %call, double noundef %0, double noundef %1, double noundef %2, i1 noundef zeroext true)
  store double %call2, ptr %sigma, align 8, !tbaa !62
  %3 = load double, ptr %sigma, align 8, !tbaa !62
  %4 = load double, ptr %sigma, align 8, !tbaa !62
  %mul = fmul double %3, %4
  call void @llvm.lifetime.end.p0(i64 8, ptr %sigma) #11
  ret double %mul
}

; Function Attrs: mustprogress nounwind uwtable
define linkonce_odr noundef ptr @_ZNKSt9_Any_data9_M_accessEv(ptr noundef nonnull align 8 dereferenceable(16) %this) #1 comdat align 2 {
entry:
  %this.addr = alloca ptr, align 8
  store ptr %this, ptr %this.addr, align 8, !tbaa !3
  %this1 = load ptr, ptr %this.addr, align 8
  %arrayidx = getelementptr inbounds [16 x i8], ptr %this1, i64 0, i64 0
  ret ptr %arrayidx
}

; Function Attrs: mustprogress uwtable
define internal noundef double @_ZSt13__invoke_implIdRN8QuantLib12_GLOBAL__N_114sigmaq_adapterEJdEET_St14__invoke_otherOT0_DpOT1_(ptr noundef nonnull align 8 dereferenceable(24) %__f, ptr noundef nonnull align 8 dereferenceable(8) %__args) #2 {
entry:
  %__f.addr = alloca ptr, align 8
  %__args.addr = alloca ptr, align 8
  store ptr %__f, ptr %__f.addr, align 8, !tbaa !3
  store ptr %__args, ptr %__args.addr, align 8, !tbaa !3
  %0 = load ptr, ptr %__f.addr, align 8, !tbaa !3
  %1 = load ptr, ptr %__args.addr, align 8, !tbaa !3
  %2 = load double, ptr %1, align 8, !tbaa !62
  %call = call noundef double @_ZNK8QuantLib12_GLOBAL__N_114sigmaq_adapterclEd(ptr noundef nonnull align 8 dereferenceable(24) %0, double noundef %2)
  ret double %call
}

; Function Attrs: mustprogress nounwind uwtable
define internal noundef nonnull align 8 dereferenceable(8) ptr @_ZNKSt9_Any_data9_M_accessIPN8QuantLib12_GLOBAL__N_114sigmaq_adapterEEERKT_v(ptr noundef nonnull align 8 dereferenceable(16) %this) #1 align 2 {
entry:
  %this.addr = alloca ptr, align 8
  store ptr %this, ptr %this.addr, align 8, !tbaa !3
  %this1 = load ptr, ptr %this.addr, align 8
  %call = call noundef ptr @_ZNKSt9_Any_data9_M_accessEv(ptr noundef nonnull align 8 dereferenceable(16) %this1) #11
  ret ptr %call
}

; Function Attrs: mustprogress uwtable
define internal noundef double @_ZSt10__invoke_rIdRN8QuantLib12_GLOBAL__N_114sigmaq_adapterEJdEENSt9enable_ifIX16is_invocable_r_vIT_T0_DpT1_EES5_E4typeEOS6_DpOS7_(ptr noundef nonnull align 8 dereferenceable(24) %__fn, ptr noundef nonnull align 8 dereferenceable(8) %__args) #2 {
entry:
  %__fn.addr = alloca ptr, align 8
  %__args.addr = alloca ptr, align 8
  store ptr %__fn, ptr %__fn.addr, align 8, !tbaa !3
  store ptr %__args, ptr %__args.addr, align 8, !tbaa !3
  %0 = load ptr, ptr %__fn.addr, align 8, !tbaa !3
  %1 = load ptr, ptr %__args.addr, align 8, !tbaa !3
  %call = call noundef double @_ZSt13__invoke_implIdRN8QuantLib12_GLOBAL__N_114sigmaq_adapterEJdEET_St14__invoke_otherOT0_DpOT1_(ptr noundef nonnull align 8 dereferenceable(24) %0, ptr noundef nonnull align 8 dereferenceable(8) %1)
  ret double %call
}

; Function Attrs: mustprogress nounwind uwtable
define internal noundef ptr @_ZNSt14_Function_base13_Base_managerIN8QuantLib12_GLOBAL__N_114sigmaq_adapterEE14_M_get_pointerERKSt9_Any_data(ptr noundef nonnull align 8 dereferenceable(16) %__source) #1 align 2 {
entry:
  %__source.addr = alloca ptr, align 8
  store ptr %__source, ptr %__source.addr, align 8, !tbaa !3
  %0 = load ptr, ptr %__source.addr, align 8, !tbaa !3
  %call = call noundef nonnull align 8 dereferenceable(8) ptr @_ZNKSt9_Any_data9_M_accessIPN8QuantLib12_GLOBAL__N_114sigmaq_adapterEEERKT_v(ptr noundef nonnull align 8 dereferenceable(16) %0) #11
  %1 = load ptr, ptr %call, align 8, !tbaa !3
  ret ptr %1
}

; Function Attrs: mustprogress uwtable
define internal noundef double @_ZNSt17_Function_handlerIFddEN8QuantLib12_GLOBAL__N_114sigmaq_adapterEE9_M_invokeERKSt9_Any_dataOd(ptr noundef nonnull align 8 dereferenceable(16) %__functor, ptr noundef nonnull align 8 dereferenceable(8) %__args) #2 align 2 {
entry:
  %__functor.addr = alloca ptr, align 8
  %__args.addr = alloca ptr, align 8
  store ptr %__functor, ptr %__functor.addr, align 8, !tbaa !3
  store ptr %__args, ptr %__args.addr, align 8, !tbaa !3
  %0 = load ptr, ptr %__functor.addr, align 8, !tbaa !3
  %call = call noundef ptr @_ZNSt14_Function_base13_Base_managerIN8QuantLib12_GLOBAL__N_114sigmaq_adapterEE14_M_get_pointerERKSt9_Any_data(ptr noundef nonnull align 8 dereferenceable(16) %0) #11
  %1 = load ptr, ptr %__args.addr, align 8, !tbaa !3
  %call1 = call noundef double @_ZSt10__invoke_rIdRN8QuantLib12_GLOBAL__N_114sigmaq_adapterEJdEENSt9enable_ifIX16is_invocable_r_vIT_T0_DpT1_EES5_E4typeEOS6_DpOS7_(ptr noundef nonnull align 8 dereferenceable(24) %call, ptr noundef nonnull align 8 dereferenceable(8) %1)
  ret double %call1
}